; ModuleID = '11/571.c'
source_filename = "11/571.c"
target datalayout = "e-m:e-p270:32:32-p271:32:32-p272:64:64-i64:64-f80:128-n8:16:32:64-S128"
target triple = "x86_64-pc-linux-gnu"

@__const.main.dm = private unnamed_addr constant [12 x i32] [i32 31, i32 28, i32 31, i32 30, i32 31, i32 30, i32 31, i32 31, i32 30, i32 31, i32 30, i32 31], align 16
@.str = private unnamed_addr constant [7 x i8] c"%d%d%d\00", align 1
@.str.1 = private unnamed_addr constant [3 x i8] c"%d\00", align 1

; Function Attrs: noinline nounwind uwtable
define dso_local i32 @main() #0 {
  %1 = alloca i32, align 4
  %2 = alloca i32, align 4
  %3 = alloca [12 x i32], align 16
  %4 = alloca i32, align 4
  %5 = alloca i32, align 4
  %6 = alloca i32, align 4
  %7 = alloca i32, align 4
  %8 = alloca i32, align 4
  store i32 0, i32* %1, align 4
  %9 = bitcast [12 x i32]* %3 to i8*
  call void @llvm.memcpy.p0i8.p0i8.i64(i8* align 16 %9, i8* align 16 bitcast ([12 x i32]* @__const.main.dm to i8*), i64 48, i1 false)
  store i32 0, i32* %4, align 4
  store i32 0, i32* %5, align 4
  %10 = call i32 (i8*, ...) @__isoc99_scanf(i8* getelementptr inbounds ([7 x i8], [7 x i8]* @.str, i64 0, i64 0), i32* %2, i32* %5, i32* %4)
  %11 = load i32, i32* %2, align 4
  %12 = srem i32 %11, 400
  %13 = icmp eq i32 %12, 0
  br i1 %13, label %22, label %14

14:                                               ; preds = %0
  %15 = load i32, i32* %2, align 4
  %16 = srem i32 %15, 4
  %17 = icmp eq i32 %16, 0
  br i1 %17, label %18, label %24

18:                                               ; preds = %14
  %19 = load i32, i32* %2, align 4
  %20 = srem i32 %19, 100
  %21 = icmp ne i32 %20, 0
  br i1 %21, label %22, label %24

22:                                               ; preds = %18, %0
  %23 = getelementptr inbounds [12 x i32], [12 x i32]* %3, i64 0, i64 1
  store i32 29, i32* %23, align 4
  br label %24

24:                                               ; preds = %22, %18, %14
  store i32 0, i32* %7, align 4
  store i32 0, i32* %8, align 4
  store i32 0, i32* %6, align 4
  br label %25

25:                                               ; preds = %37, %24
  %26 = load i32, i32* %6, align 4
  %27 = load i32, i32* %5, align 4
  %28 = sub nsw i32 %27, 1
  %29 = icmp slt i32 %26, %28
  br i1 %29, label %30, label %40

30:                                               ; preds = %25
  %31 = load i32, i32* %6, align 4
  %32 = sext i32 %31 to i64
  %33 = getelementptr inbounds [12 x i32], [12 x i32]* %3, i64 0, i64 %32
  %34 = load i32, i32* %33, align 4
  %35 = load i32, i32* %8, align 4
  %36 = add nsw i32 %35, %34
  store i32 %36, i32* %8, align 4
  br label %37

37:                                               ; preds = %30
  %38 = load i32, i32* %6, align 4
  %39 = add nsw i32 %38, 1
  store i32 %39, i32* %6, align 4
  br label %25

40:                                               ; preds = %25
  %41 = load i32, i32* %4, align 4
  %42 = load i32, i32* %8, align 4
  %43 = add nsw i32 %42, %41
  store i32 %43, i32* %8, align 4
  %44 = load i32, i32* %8, align 4
  %45 = call i32 (i8*, ...) @printf(i8* getelementptr inbounds ([3 x i8], [3 x i8]* @.str.1, i64 0, i64 0), i32 %44)
  ret i32 0
}

; Function Attrs: argmemonly nounwind willreturn
declare void @llvm.memcpy.p0i8.p0i8.i64(i8* noalias nocapture writeonly, i8* noalias nocapture readonly, i64, i1 immarg) #1

declare dso_local i32 @__isoc99_scanf(i8*, ...) #2

declare dso_local i32 @printf(i8*, ...) #2


!llvm.module.flags = !{!0}
!llvm.ident = !{!1}

!0 = !{i32 1, !"wchar_size", i32 4}
!1 = !{!"clang version 10.0.0-4ubuntu1 "}
